target datalayout = "e-m:e-p270:32:32-p271:32:32-p272:64:64-i64:64-i128:128-f80:128-n8:16:32:64-S128"
target triple = "x86_64-pc-linux-gnu"

%"class.icu_77::CurrencyUnit" = type { %"class.icu_77::MeasureUnit.base", [4 x i16], [4 x i8] }
%"class.icu_77::MeasureUnit.base" = type <{ %"class.icu_77::UObject", ptr, i16, i8 }>
%"class.icu_77::UObject" = type { ptr }

; Function Attrs: mustprogress uwtable
define void @_ZN6icu_7712CurrencyUnitC2ERKS0_(ptr noundef nonnull align 8 dereferenceable(28) %0, ptr noundef nonnull align 8 dereferenceable(28) %1) unnamed_addr #1 align 2 personality ptr @__gxx_personality_v0 {
  %3 = alloca ptr, align 8
  %4 = alloca ptr, align 8
  %5 = alloca ptr, align 8
  %6 = alloca i32, align 4
  store ptr %0, ptr %3, align 8, !tbaa !23
  store ptr %1, ptr %4, align 8, !tbaa !23
  %7 = load ptr, ptr %3, align 8
  %8 = load ptr, ptr %4, align 8, !tbaa !23
  call void @_ZN6icu_7711MeasureUnitC2ERKS0_(ptr noundef nonnull align 8 dereferenceable(19) %7, ptr noundef nonnull align 8 dereferenceable(19) %8)
  store ptr getelementptr inbounds inrange(-16, 40) ({ [7 x ptr] }, ptr @_ZTVN6icu_7712CurrencyUnitE, i32 0, i32 0, i32 2), ptr %7, align 8, !tbaa !27
  %9 = getelementptr inbounds nuw %"class.icu_77::CurrencyUnit", ptr %7, i32 0, i32 1
  %10 = getelementptr inbounds [4 x i16], ptr %9, i64 0, i64 0
  %11 = load ptr, ptr %4, align 8, !tbaa !23
  %12 = getelementptr inbounds nuw %"class.icu_77::CurrencyUnit", ptr %11, i32 0, i32 1
  %13 = getelementptr inbounds [4 x i16], ptr %12, i64 0, i64 0
  %14 = invoke ptr @u_strcpy_77(ptr noundef %10, ptr noundef %13)
          to label %15 unwind label %16

15:                                               ; preds = %2
  ret void

16:                                               ; preds = %2
  %17 = landingpad { ptr, i32 }
          cleanup
  %18 = extractvalue { ptr, i32 } %17, 0
  store ptr %18, ptr %5, align 8
  %19 = extractvalue { ptr, i32 } %17, 1
  store i32 %19, ptr %6, align 4
  call void @_ZN6icu_7711MeasureUnitD2Ev(ptr noundef nonnull align 8 dereferenceable(19) %7) #11
  br label %20

20:                                               ; preds = %16
  %21 = load ptr, ptr %5, align 8
  %22 = load i32, ptr %6, align 4
  %23 = insertvalue { ptr, i32 } poison, ptr %21, 0
  %24 = insertvalue { ptr, i32 } %23, i32 %22, 1
  resume { ptr, i32 } %24
}